; Function Attrs: nounwind uwtable
define i32 @zend_list_delete(ptr nocapture noundef %0) local_unnamed_addr #0 {
  %2 = load i32, ptr %0, align 4
  %3 = icmp ne i32 %2, 0
  tail call void @llvm.assume(i1 %3)
  %4 = add i32 %2, -1
  store i32 %4, ptr %0, align 4
  %5 = icmp eq i32 %4, 0
  br i1 %5, label %6, label %10

6:                                                ; preds = %1
  %7 = getelementptr inbounds i8, ptr %0, i64 8
  %8 = load i64, ptr %7, align 8
  %9 = tail call i32 @zend_hash_index_del(ptr noundef nonnull getelementptr inbounds (%struct._zend_executor_globals, ptr @executor_globals, i64 0, i32 33), i64 noundef %8) #14
  br label %10

10:                                               ; preds = %1, %6
  %.0 = phi i32 [ %9, %6 ], [ 0, %1 ]
  ret i32 %.0
}